target datalayout = "e-m:e-p270:32:32-p271:32:32-p272:64:64-i64:64-i128:128-f80:128-n8:16:32:64-S128"
target triple = "x86_64-pc-linux-gnu"

%"struct.std::atomic" = type { %"struct.std::__atomic_base" }
%"struct.std::__atomic_base" = type { i8 }
%"struct.std::atomic_flag" = type { %"struct.std::__atomic_flag_base" }
%"struct.std::__atomic_flag_base" = type { i8 }
%"class.tbb::detail::d0::atomic_backoff" = type { i32 }
%struct.___itt_id = type { i64, i64, i64 }
%struct.___itt_domain = type { i32, ptr, ptr, i32, ptr, ptr }

@_ZN3tbb6detail2r1L22ITT_InitializationDoneE = internal global %"struct.std::atomic" zeroinitializer, align 1
@__itt_region_begin_ptr__3_0 = external global ptr, align 8
@_ZN3tbb6detail2r1L11tbb_domainsE = internal global [3 x ptr] zeroinitializer, align 16
@_ZN3tbb6detail2r114__TBB_InitOnce18InitializationLockE = external global %"struct.std::atomic_flag", align 1

; Function Attrs: inlinehint mustprogress nounwind sspstrong uwtable
define internal noundef i32 @_ZL15__gthread_yieldv() #10 {
  %1 = call i32 @sched_yield() #11
  ret i32 %1
}

; Function Attrs: inlinehint mustprogress nounwind sspstrong uwtable
define linkonce_odr void @_ZNSt11this_thread5yieldEv() #10 comdat personality ptr @__gxx_personality_v0 {
  %1 = invoke noundef i32 @_ZL15__gthread_yieldv()
          to label %2 unwind label %3

2:                                                ; preds = %0
  ret void

3:                                                ; preds = %0
  %4 = landingpad { ptr, i32 }
          catch ptr null
  %5 = extractvalue { ptr, i32 } %4, 0
  call void @__clang_call_terminate(ptr %5) #14
  unreachable
}

; Function Attrs: inlinehint mustprogress nounwind sspstrong uwtable
define internal void @_ZN3tbb6detail2d0L13machine_pauseEi(i32 noundef %0) #10 {
  %2 = alloca i32, align 4
  store i32 %0, ptr %2, align 4, !tbaa !17
  br label %3

3:                                                ; preds = %7, %1
  %4 = load i32, ptr %2, align 4, !tbaa !17
  %5 = add nsw i32 %4, -1
  store i32 %5, ptr %2, align 4, !tbaa !17
  %6 = icmp sgt i32 %4, 0
  br i1 %6, label %7, label %8

7:                                                ; preds = %3
  call void @llvm.x86.sse2.pause()
  br label %3, !llvm.loop !54

8:                                                ; preds = %3
  ret void
}

; Function Attrs: noinline noreturn nounwind sspstrong uwtable
define linkonce_odr hidden void @__clang_call_terminate(ptr noundef %0) #9 comdat {
  %2 = call ptr @__cxa_begin_catch(ptr %0) #11
  call void @_ZSt9terminatev() #14
  unreachable
}

; Function Attrs: mustprogress nounwind sspstrong uwtable
define linkonce_odr noundef i32 @_ZStanSt12memory_orderSt23__memory_order_modifier(i32 noundef %0, i32 noundef %1) #1 comdat {
  %3 = alloca i32, align 4
  %4 = alloca i32, align 4
  store i32 %0, ptr %3, align 4, !tbaa !42
  store i32 %1, ptr %4, align 4, !tbaa !44
  %5 = load i32, ptr %3, align 4, !tbaa !42
  %6 = load i32, ptr %4, align 4, !tbaa !44
  %7 = and i32 %5, %6
  ret i32 %7
}

; Function Attrs: alwaysinline mustprogress nounwind sspstrong uwtable
define linkonce_odr void @_ZNSt11atomic_flag5clearESt12memory_order(ptr noundef nonnull align 1 dereferenceable(1) %0, i32 noundef %1) #8 comdat align 2 {
  %3 = alloca ptr, align 8
  %4 = alloca i32, align 4
  %5 = alloca i32, align 4
  store ptr %0, ptr %3, align 8, !tbaa !52
  store i32 %1, ptr %4, align 4, !tbaa !42
  %6 = load ptr, ptr %3, align 8
  call void @llvm.lifetime.start.p0(i64 4, ptr %5) #11
  %7 = load i32, ptr %4, align 4, !tbaa !42
  %8 = call noundef i32 @_ZStanSt12memory_orderSt23__memory_order_modifier(i32 noundef %7, i32 noundef 65535)
  store i32 %8, ptr %5, align 4, !tbaa !42
  br label %9

9:                                                ; preds = %2
  br label %10

10:                                               ; preds = %9
  br label %11

11:                                               ; preds = %10
  br label %12

12:                                               ; preds = %11
  br label %13

13:                                               ; preds = %12
  br label %14

14:                                               ; preds = %13
  br label %15

15:                                               ; preds = %14
  br label %16

16:                                               ; preds = %15
  br label %17

17:                                               ; preds = %16
  %18 = getelementptr inbounds nuw %"struct.std::__atomic_flag_base", ptr %6, i32 0, i32 0
  %19 = load i32, ptr %4, align 4, !tbaa !42
  switch i32 %19, label %20 [
    i32 3, label %21
    i32 5, label %22
  ]

20:                                               ; preds = %17
  store atomic i8 0, ptr %18 monotonic, align 1
  br label %23

21:                                               ; preds = %17
  store atomic i8 0, ptr %18 release, align 1
  br label %23

22:                                               ; preds = %17
  store atomic i8 0, ptr %18 seq_cst, align 1
  br label %23

23:                                               ; preds = %22, %21, %20
  call void @llvm.lifetime.end.p0(i64 4, ptr %5) #11
  ret void
}

; Function Attrs: mustprogress sspstrong uwtable
define linkonce_odr void @_ZN3tbb6detail2d014atomic_backoff5pauseEv(ptr noundef nonnull align 4 dereferenceable(4) %0) #0 comdat align 2 {
  %2 = alloca ptr, align 8
  store ptr %0, ptr %2, align 8, !tbaa !48
  %3 = load ptr, ptr %2, align 8
  %4 = getelementptr inbounds nuw %"class.tbb::detail::d0::atomic_backoff", ptr %3, i32 0, i32 0
  %5 = load i32, ptr %4, align 4, !tbaa !50
  %6 = icmp sle i32 %5, 16
  br i1 %6, label %7, label %13

7:                                                ; preds = %1
  %8 = getelementptr inbounds nuw %"class.tbb::detail::d0::atomic_backoff", ptr %3, i32 0, i32 0
  %9 = load i32, ptr %8, align 4, !tbaa !50
  call void @_ZN3tbb6detail2d0L13machine_pauseEi(i32 noundef %9)
  %10 = getelementptr inbounds nuw %"class.tbb::detail::d0::atomic_backoff", ptr %3, i32 0, i32 0
  %11 = load i32, ptr %10, align 4, !tbaa !50
  %12 = mul nsw i32 %11, 2
  store i32 %12, ptr %10, align 4, !tbaa !50
  br label %14

13:                                               ; preds = %1
  call void @_ZNSt11this_thread5yieldEv() #11
  br label %14

14:                                               ; preds = %13, %7
  ret void
}

; Function Attrs: alwaysinline mustprogress nounwind sspstrong uwtable
define linkonce_odr noundef zeroext i1 @_ZNSt11atomic_flag12test_and_setESt12memory_order(ptr noundef nonnull align 1 dereferenceable(1) %0, i32 noundef %1) #8 comdat align 2 {
  %3 = alloca ptr, align 8
  %4 = alloca i32, align 4
  %5 = alloca i8, align 1
  store ptr %0, ptr %3, align 8, !tbaa !52
  store i32 %1, ptr %4, align 4, !tbaa !42
  %6 = load ptr, ptr %3, align 8
  %7 = getelementptr inbounds nuw %"struct.std::__atomic_flag_base", ptr %6, i32 0, i32 0
  %8 = load i32, ptr %4, align 4, !tbaa !42
  switch i32 %8, label %9 [
    i32 1, label %12
    i32 2, label %12
    i32 3, label %15
    i32 4, label %18
    i32 5, label %21
  ]

9:                                                ; preds = %2
  %10 = atomicrmw xchg ptr %7, i8 1 monotonic, align 1
  %11 = icmp ne i8 %10, 0
  store i1 %11, ptr %5, align 1
  br label %24

12:                                               ; preds = %2, %2
  %13 = atomicrmw xchg ptr %7, i8 1 acquire, align 1
  %14 = icmp ne i8 %13, 0
  store i1 %14, ptr %5, align 1
  br label %24

15:                                               ; preds = %2
  %16 = atomicrmw xchg ptr %7, i8 1 release, align 1
  %17 = icmp ne i8 %16, 0
  store i1 %17, ptr %5, align 1
  br label %24

18:                                               ; preds = %2
  %19 = atomicrmw xchg ptr %7, i8 1 acq_rel, align 1
  %20 = icmp ne i8 %19, 0
  store i1 %20, ptr %5, align 1
  br label %24

21:                                               ; preds = %2
  %22 = atomicrmw xchg ptr %7, i8 1 seq_cst, align 1
  %23 = icmp ne i8 %22, 0
  store i1 %23, ptr %5, align 1
  br label %24

24:                                               ; preds = %21, %18, %15, %12, %9
  %25 = load i8, ptr %5, align 1, !tbaa !3, !range !7, !noundef !8
  %26 = trunc i8 %25 to i1
  ret i1 %26
}

; Function Attrs: mustprogress nounwind sspstrong uwtable
define linkonce_odr void @_ZN3tbb6detail2d014atomic_backoffC2Ev(ptr noundef nonnull align 4 dereferenceable(4) %0) unnamed_addr #1 comdat align 2 {
  %2 = alloca ptr, align 8
  store ptr %0, ptr %2, align 8, !tbaa !48
  %3 = load ptr, ptr %2, align 8
  %4 = getelementptr inbounds nuw %"class.tbb::detail::d0::atomic_backoff", ptr %3, i32 0, i32 0
  store i32 1, ptr %4, align 4, !tbaa !50
  ret void
}

; Function Attrs: alwaysinline mustprogress nounwind sspstrong uwtable
define linkonce_odr noundef zeroext i1 @_ZNKSt13__atomic_baseIbE4loadESt12memory_order(ptr noundef nonnull align 1 dereferenceable(1) %0, i32 noundef %1) #8 comdat align 2 personality ptr @__gxx_personality_v0 {
  %3 = alloca ptr, align 8
  %4 = alloca i32, align 4
  %5 = alloca i32, align 4
  %6 = alloca i8, align 1
  store ptr %0, ptr %3, align 8, !tbaa !40
  store i32 %1, ptr %4, align 4, !tbaa !42
  %7 = load ptr, ptr %3, align 8
  call void @llvm.lifetime.start.p0(i64 4, ptr %5) #11
  %8 = load i32, ptr %4, align 4, !tbaa !42
  %9 = invoke noundef i32 @_ZStanSt12memory_orderSt23__memory_order_modifier(i32 noundef %8, i32 noundef 65535)
          to label %10 unwind label %28

10:                                               ; preds = %2
  store i32 %9, ptr %5, align 4, !tbaa !42
  br label %11

11:                                               ; preds = %10
  br label %12

12:                                               ; preds = %11
  br label %13

13:                                               ; preds = %12
  br label %14

14:                                               ; preds = %13
  br label %15

15:                                               ; preds = %14
  br label %16

16:                                               ; preds = %15
  %17 = getelementptr inbounds nuw %"struct.std::__atomic_base", ptr %7, i32 0, i32 0
  %18 = load i32, ptr %4, align 4, !tbaa !42
  switch i32 %18, label %19 [
    i32 1, label %21
    i32 2, label %21
    i32 5, label %23
  ]

19:                                               ; preds = %16
  %20 = load atomic i8, ptr %17 monotonic, align 1
  store i8 %20, ptr %6, align 1
  br label %25

21:                                               ; preds = %16, %16
  %22 = load atomic i8, ptr %17 acquire, align 1
  store i8 %22, ptr %6, align 1
  br label %25

23:                                               ; preds = %16
  %24 = load atomic i8, ptr %17 seq_cst, align 1
  store i8 %24, ptr %6, align 1
  br label %25

25:                                               ; preds = %23, %21, %19
  %26 = load i8, ptr %6, align 1, !tbaa !3, !range !7, !noundef !8
  %27 = trunc i8 %26 to i1
  call void @llvm.lifetime.end.p0(i64 4, ptr %5) #11
  ret i1 %27

28:                                               ; preds = %2
  %29 = landingpad { ptr, i32 }
          catch ptr null
  %30 = extractvalue { ptr, i32 } %29, 0
  call void @__clang_call_terminate(ptr %30) #14
  unreachable
}

; Function Attrs: mustprogress nounwind sspstrong uwtable
define linkonce_odr void @_ZN3tbb6detail2r114__TBB_InitOnce6unlockEv() #1 comdat align 2 {
  call void @_ZNSt11atomic_flag5clearESt12memory_order(ptr noundef nonnull align 1 dereferenceable(1) @_ZN3tbb6detail2r114__TBB_InitOnce18InitializationLockE, i32 noundef 3) #11
  ret void
}

; Function Attrs: mustprogress sspstrong uwtable
define linkonce_odr void @_ZN3tbb6detail2r114__TBB_InitOnce4lockEv() #0 comdat align 2 {
  %1 = alloca %"class.tbb::detail::d0::atomic_backoff", align 4
  call void @llvm.lifetime.start.p0(i64 4, ptr %1) #11
  call void @_ZN3tbb6detail2d014atomic_backoffC2Ev(ptr noundef nonnull align 4 dereferenceable(4) %1)
  br label %2

2:                                                ; preds = %4, %0
  %3 = call noundef zeroext i1 @_ZNSt11atomic_flag12test_and_setESt12memory_order(ptr noundef nonnull align 1 dereferenceable(1) @_ZN3tbb6detail2r114__TBB_InitOnce18InitializationLockE, i32 noundef 5) #11
  br i1 %3, label %4, label %5

4:                                                ; preds = %2
  call void @_ZN3tbb6detail2d014atomic_backoff5pauseEv(ptr noundef nonnull align 4 dereferenceable(4) %1)
  br label %2, !llvm.loop !12

5:                                                ; preds = %2
  call void @llvm.lifetime.end.p0(i64 4, ptr %1) #11
  ret void
}

; Function Attrs: mustprogress nounwind sspstrong uwtable
define linkonce_odr noundef zeroext i1 @_ZNKSt6atomicIbEcvbEv(ptr noundef nonnull align 1 dereferenceable(1) %0) #1 comdat align 2 {
  %2 = alloca ptr, align 8
  store ptr %0, ptr %2, align 8, !tbaa !9
  %3 = load ptr, ptr %2, align 8
  %4 = getelementptr inbounds nuw %"struct.std::atomic", ptr %3, i32 0, i32 0
  %5 = call noundef zeroext i1 @_ZNKSt13__atomic_baseIbE4loadESt12memory_order(ptr noundef nonnull align 1 dereferenceable(1) %4, i32 noundef 5) #11
  ret i1 %5
}

; Function Attrs: mustprogress nounwind sspstrong uwtable
define internal void @_ZL13__itt_id_makePvy(ptr dead_on_unwind noalias writable sret(%struct.___itt_id) align 8 %0, ptr noundef %1, i64 noundef %2) #1 {
  %4 = alloca ptr, align 8
  %5 = alloca i64, align 8
  store ptr %1, ptr %4, align 8, !tbaa !14
  store i64 %2, ptr %5, align 8, !tbaa !21
  call void @llvm.memset.p0.i64(ptr align 8 %0, i8 0, i64 24, i1 false)
  %6 = load ptr, ptr %4, align 8, !tbaa !14
  %7 = ptrtoint ptr %6 to i64
  %8 = getelementptr inbounds nuw %struct.___itt_id, ptr %0, i32 0, i32 0
  store i64 %7, ptr %8, align 8, !tbaa !55
  %9 = load i64, ptr %5, align 8, !tbaa !21
  %10 = getelementptr inbounds nuw %struct.___itt_id, ptr %0, i32 0, i32 1
  store i64 %9, ptr %10, align 8, !tbaa !57
  %11 = getelementptr inbounds nuw %struct.___itt_id, ptr %0, i32 0, i32 2
  store i64 0, ptr %11, align 8, !tbaa !58
  ret void
}

; Function Attrs: mustprogress sspstrong uwtable
define void @ITT_DoOneTimeInitialization() #0 {
  %1 = call noundef zeroext i1 @_ZNKSt6atomicIbEcvbEv(ptr noundef nonnull align 1 dereferenceable(1) @_ZN3tbb6detail2r1L22ITT_InitializationDoneE) #11
  br i1 %1, label %3, label %2

2:                                                ; preds = %0
  call void @_ZN3tbb6detail2r114__TBB_InitOnce4lockEv()
  call void @_ZN3tbb6detail2r133ITT_DoUnsafeOneTimeInitializationEv()
  call void @_ZN3tbb6detail2r114__TBB_InitOnce6unlockEv()
  br label %3

3:                                                ; preds = %2, %0
  ret void
}

; Function Attrs: inlinehint mustprogress sspstrong uwtable
define internal void @_ZN3tbb6detail2r1L11itt_id_makeEP9___itt_idPvy(ptr noundef %0, ptr noundef %1, i64 noundef %2) #4 {
  %4 = alloca ptr, align 8
  %5 = alloca ptr, align 8
  %6 = alloca i64, align 8
  %7 = alloca %struct.___itt_id, align 8
  store ptr %0, ptr %4, align 8, !tbaa !32
  store ptr %1, ptr %5, align 8, !tbaa !14
  store i64 %2, ptr %6, align 8, !tbaa !21
  call void @llvm.lifetime.start.p0(i64 24, ptr %7) #11
  %8 = load ptr, ptr %5, align 8, !tbaa !14
  %9 = load i64, ptr %6, align 8, !tbaa !21
  call void @_ZL13__itt_id_makePvy(ptr dead_on_unwind writable sret(%struct.___itt_id) align 8 %7, ptr noundef %8, i64 noundef %9)
  %10 = load ptr, ptr %4, align 8, !tbaa !32
  call void @llvm.memcpy.p0.p0.i64(ptr align 8 %10, ptr align 8 %7, i64 24, i1 false), !tbaa.struct !27
  call void @llvm.lifetime.end.p0(i64 24, ptr %7) #11
  ret void
}

; Function Attrs: inlinehint mustprogress sspstrong uwtable
define internal noundef ptr @_ZN3tbb6detail2r1L14get_itt_domainENS0_2d115itt_domain_enumE(i32 noundef %0) #4 {
  %2 = alloca i32, align 4
  store i32 %0, ptr %2, align 4, !tbaa !19
  %3 = load i32, ptr %2, align 4, !tbaa !19
  %4 = zext i32 %3 to i64
  %5 = getelementptr inbounds nuw [3 x ptr], ptr @_ZN3tbb6detail2r1L11tbb_domainsE, i64 0, i64 %4
  %6 = load ptr, ptr %5, align 8, !tbaa !25
  %7 = icmp eq ptr %6, null
  br i1 %7, label %8, label %9

8:                                                ; preds = %1
  call void @ITT_DoOneTimeInitialization()
  br label %9

9:                                                ; preds = %8, %1
  %10 = load i32, ptr %2, align 4, !tbaa !19
  %11 = zext i32 %10 to i64
  %12 = getelementptr inbounds nuw [3 x ptr], ptr @_ZN3tbb6detail2r1L11tbb_domainsE, i64 0, i64 %11
  %13 = load ptr, ptr %12, align 8, !tbaa !25
  ret ptr %13
}

; Function Attrs: mustprogress sspstrong uwtable
define void @_ZN3tbb6detail2r116itt_region_beginENS0_2d115itt_domain_enumEPvyS4_yNS0_2d021string_resource_indexE(i32 noundef %0, ptr noundef %1, i64 noundef %2, ptr noundef %3, i64 noundef %4, i64 noundef %5) #0 {
  %7 = alloca i32, align 4
  %8 = alloca ptr, align 8
  %9 = alloca i64, align 8
  %10 = alloca ptr, align 8
  %11 = alloca i64, align 8
  %12 = alloca i64, align 8
  %13 = alloca ptr, align 8
  %14 = alloca %struct.___itt_id, align 8
  %15 = alloca %struct.___itt_id, align 8
  %16 = alloca %struct.___itt_id, align 8
  %17 = alloca %struct.___itt_id, align 8
  store i32 %0, ptr %7, align 4, !tbaa !19
  store ptr %1, ptr %8, align 8, !tbaa !14
  store i64 %2, ptr %9, align 8, !tbaa !21
  store ptr %3, ptr %10, align 8, !tbaa !14
  store i64 %4, ptr %11, align 8, !tbaa !21
  store i64 %5, ptr %12, align 8, !tbaa !23
  call void @llvm.lifetime.start.p0(i64 8, ptr %13) #11
  %18 = load i32, ptr %7, align 4, !tbaa !19
  %19 = call noundef ptr @_ZN3tbb6detail2r1L14get_itt_domainENS0_2d115itt_domain_enumE(i32 noundef %18)
  store ptr %19, ptr %13, align 8, !tbaa !25
  %20 = load ptr, ptr %13, align 8, !tbaa !25
  %21 = icmp ne ptr %20, null
  br i1 %21, label %22, label %50

22:                                               ; preds = %6
  call void @llvm.lifetime.start.p0(i64 24, ptr %14) #11
  call void @llvm.memset.p0.i64(ptr align 8 %14, i8 0, i64 24, i1 false)
  call void @llvm.lifetime.start.p0(i64 24, ptr %15) #11
  call void @llvm.memset.p0.i64(ptr align 8 %15, i8 0, i64 24, i1 false)
  %23 = load ptr, ptr %8, align 8, !tbaa !14
  %24 = load i64, ptr %9, align 8, !tbaa !21
  call void @_ZN3tbb6detail2r1L11itt_id_makeEP9___itt_idPvy(ptr noundef %14, ptr noundef %23, i64 noundef %24)
  %25 = load ptr, ptr %10, align 8, !tbaa !14
  %26 = icmp ne ptr %25, null
  br i1 %26, label %27, label %30

27:                                               ; preds = %22
  %28 = load ptr, ptr %10, align 8, !tbaa !14
  %29 = load i64, ptr %11, align 8, !tbaa !21
  call void @_ZN3tbb6detail2r1L11itt_id_makeEP9___itt_idPvy(ptr noundef %15, ptr noundef %28, i64 noundef %29)
  br label %30

30:                                               ; preds = %27, %22
  %31 = load ptr, ptr %13, align 8, !tbaa !25
  %32 = icmp eq ptr %31, null
  br i1 %32, label %33, label %34

33:                                               ; preds = %30
  br label %49

34:                                               ; preds = %30
  %35 = load ptr, ptr %13, align 8, !tbaa !25
  %36 = getelementptr inbounds nuw %struct.___itt_domain, ptr %35, i32 0, i32 0
  %37 = load volatile i32, ptr %36, align 8, !tbaa !30
  %38 = icmp ne i32 %37, 0
  br i1 %38, label %40, label %39

39:                                               ; preds = %34
  br label %48

40:                                               ; preds = %34
  %41 = load ptr, ptr @__itt_region_begin_ptr__3_0, align 8, !tbaa !14
  %42 = icmp ne ptr %41, null
  br i1 %42, label %44, label %43

43:                                               ; preds = %40
  br label %47

44:                                               ; preds = %40
  %45 = load ptr, ptr @__itt_region_begin_ptr__3_0, align 8, !tbaa !14
  %46 = load ptr, ptr %13, align 8, !tbaa !25
  call void @llvm.memcpy.p0.p0.i64(ptr align 8 %16, ptr align 8 %14, i64 24, i1 false), !tbaa.struct !27
  call void @llvm.memcpy.p0.p0.i64(ptr align 8 %17, ptr align 8 %15, i64 24, i1 false), !tbaa.struct !27
  call void %45(ptr noundef %46, ptr noundef byval(%struct.___itt_id) align 8 %16, ptr noundef byval(%struct.___itt_id) align 8 %17, ptr noundef null)
  br label %47

47:                                               ; preds = %44, %43
  br label %48

48:                                               ; preds = %47, %39
  br label %49

49:                                               ; preds = %48, %33
  call void @llvm.lifetime.end.p0(i64 24, ptr %15) #11
  call void @llvm.lifetime.end.p0(i64 24, ptr %14) #11
  br label %50

50:                                               ; preds = %49, %6
  call void @llvm.lifetime.end.p0(i64 8, ptr %13) #11
  ret void
}