; Function Attrs: mustprogress sspstrong uwtable
define void @_ZN3tbb6detail2r116itt_region_beginENS0_2d115itt_domain_enumEPvyS4_yNS0_2d021string_resource_indexE(i32 noundef %0, ptr noundef %1, i64 noundef %2, ptr noundef %3, i64 noundef %4, i64 noundef %5) local_unnamed_addr #0 personality ptr @__gxx_personality_v0 {
  %7 = alloca i8, align 1
  %8 = alloca %struct.___itt_id, align 8
  %9 = alloca %struct.___itt_id, align 8
  %10 = zext i32 %0 to i64
  %11 = getelementptr inbounds nuw [3 x ptr], ptr @_ZN3tbb6detail2r1L11tbb_domainsE, i64 0, i64 %10
  %12 = load ptr, ptr %11, align 8, !tbaa !9
  %13 = icmp eq ptr %12, null
  br i1 %13, label %14, label %_ZN3tbb6detail2r1L14get_itt_domainENS0_2d115itt_domain_enumE.exit.thread

14:                                               ; preds = %6
  %15 = load atomic i8, ptr @_ZN3tbb6detail2r1L22ITT_InitializationDoneE.0 seq_cst, align 1
  %16 = trunc i8 %15 to i1
  br i1 %16, label %_ZN3tbb6detail2r1L14get_itt_domainENS0_2d115itt_domain_enumE.exit, label %17

17:                                               ; preds = %14
  call void @llvm.lifetime.start.p0(i64 1, ptr nonnull %7)
  %18 = atomicrmw xchg ptr @_ZN3tbb6detail2r114__TBB_InitOnce18InitializationLockE, i8 1 seq_cst, align 1
  %19 = icmp ne i8 %18, 0
  store i1 %19, ptr %7, align 1
  %.0..0..0..0..0..0..0..0..0..0..i2.i.i.i = load i8, ptr %7, align 1, !tbaa !3, !range !23, !noundef !24
  %20 = trunc nuw i8 %.0..0..0..0..0..0..0..0..0..0..i2.i.i.i to i1
  call void @llvm.lifetime.end.p0(i64 1, ptr nonnull %7)
  br i1 %20, label %.lr.ph.i.i.i, label %_ZN3tbb6detail2r114__TBB_InitOnce4lockEv.exit.i.i

.lr.ph.i.i.i:                                     ; preds = %17, %_ZN3tbb6detail2d014atomic_backoff5pauseEv.exit.i.i.i
  %.sroa.0.03.i.i.i = phi i32 [ %.sroa.0.1.i.i.i, %_ZN3tbb6detail2d014atomic_backoff5pauseEv.exit.i.i.i ], [ 1, %17 ]
  %21 = icmp slt i32 %.sroa.0.03.i.i.i, 17
  br i1 %21, label %22, label %27

22:                                               ; preds = %.lr.ph.i.i.i
  %23 = icmp sgt i32 %.sroa.0.03.i.i.i, 0
  br i1 %23, label %.lr.ph.i.i.i.i.i, label %_ZN3tbb6detail2d0L13machine_pauseEi.exit.i.i.i.i

.lr.ph.i.i.i.i.i:                                 ; preds = %22, %.lr.ph.i.i.i.i.i
  %.01.i.i.i.i.i = phi i32 [ %24, %.lr.ph.i.i.i.i.i ], [ %.sroa.0.03.i.i.i, %22 ]
  %24 = add nsw i32 %.01.i.i.i.i.i, -1
  tail call void @llvm.x86.sse2.pause()
  %25 = icmp samesign ugt i32 %.01.i.i.i.i.i, 1
  br i1 %25, label %.lr.ph.i.i.i.i.i, label %_ZN3tbb6detail2d0L13machine_pauseEi.exit.i.i.i.i, !llvm.loop !25

_ZN3tbb6detail2d0L13machine_pauseEi.exit.i.i.i.i: ; preds = %.lr.ph.i.i.i.i.i, %22
  %26 = shl nsw i32 %.sroa.0.03.i.i.i, 1
  br label %_ZN3tbb6detail2d014atomic_backoff5pauseEv.exit.i.i.i

27:                                               ; preds = %.lr.ph.i.i.i
  %28 = tail call noundef i32 @sched_yield() #4
  br label %_ZN3tbb6detail2d014atomic_backoff5pauseEv.exit.i.i.i

_ZN3tbb6detail2d014atomic_backoff5pauseEv.exit.i.i.i: ; preds = %27, %_ZN3tbb6detail2d0L13machine_pauseEi.exit.i.i.i.i
  %.sroa.0.1.i.i.i = phi i32 [ %26, %_ZN3tbb6detail2d0L13machine_pauseEi.exit.i.i.i.i ], [ %.sroa.0.03.i.i.i, %27 ]
  call void @llvm.lifetime.start.p0(i64 1, ptr nonnull %7)
  %29 = atomicrmw xchg ptr @_ZN3tbb6detail2r114__TBB_InitOnce18InitializationLockE, i8 1 seq_cst, align 1
  %30 = icmp ne i8 %29, 0
  store i1 %30, ptr %7, align 1
  %.0..0..0..0..0..0..0..0..0..0..i.i.i.i = load i8, ptr %7, align 1, !tbaa !3, !range !23, !noundef !24
  %31 = trunc nuw i8 %.0..0..0..0..0..0..0..0..0..0..i.i.i.i to i1
  call void @llvm.lifetime.end.p0(i64 1, ptr nonnull %7)
  br i1 %31, label %.lr.ph.i.i.i, label %_ZN3tbb6detail2r114__TBB_InitOnce4lockEv.exit.i.i, !llvm.loop !26

_ZN3tbb6detail2r114__TBB_InitOnce4lockEv.exit.i.i: ; preds = %_ZN3tbb6detail2d014atomic_backoff5pauseEv.exit.i.i.i, %17
  tail call void @_ZN3tbb6detail2r133ITT_DoUnsafeOneTimeInitializationEv()
  store atomic i8 0, ptr @_ZN3tbb6detail2r114__TBB_InitOnce18InitializationLockE release, align 1
  br label %_ZN3tbb6detail2r1L14get_itt_domainENS0_2d115itt_domain_enumE.exit

_ZN3tbb6detail2r1L14get_itt_domainENS0_2d115itt_domain_enumE.exit: ; preds = %14, %_ZN3tbb6detail2r114__TBB_InitOnce4lockEv.exit.i.i
  %.pr = load ptr, ptr %11, align 8, !tbaa !9
  %.not = icmp eq ptr %.pr, null
  br i1 %.not, label %40, label %_ZN3tbb6detail2r1L14get_itt_domainENS0_2d115itt_domain_enumE.exit.thread

_ZN3tbb6detail2r1L14get_itt_domainENS0_2d115itt_domain_enumE.exit.thread: ; preds = %6, %_ZN3tbb6detail2r1L14get_itt_domainENS0_2d115itt_domain_enumE.exit
  %32 = phi ptr [ %.pr, %_ZN3tbb6detail2r1L14get_itt_domainENS0_2d115itt_domain_enumE.exit ], [ %12, %6 ]
  %33 = load volatile i32, ptr %32, align 8, !tbaa !11
  %34 = icmp ne i32 %33, 0
  %35 = load ptr, ptr @__itt_region_begin_ptr__3_0, align 8
  %36 = icmp ne ptr %35, null
  %or.cond = select i1 %34, i1 %36, i1 false
  br i1 %or.cond, label %37, label %40

37:                                               ; preds = %_ZN3tbb6detail2r1L14get_itt_domainENS0_2d115itt_domain_enumE.exit.thread
  %.not12 = icmp eq ptr %3, null
  %spec.select19 = select i1 %.not12, i64 0, i64 %4
  %38 = ptrtoint ptr %3 to i64
  %39 = ptrtoint ptr %1 to i64
  store i64 %39, ptr %8, align 8, !tbaa !27
  %.sroa.516.0..sroa_idx = getelementptr inbounds nuw i8, ptr %8, i64 8
  store i64 %2, ptr %.sroa.516.0..sroa_idx, align 8, !tbaa !27
  %.sroa.617.0..sroa_idx = getelementptr inbounds nuw i8, ptr %8, i64 16
  store i64 0, ptr %.sroa.617.0..sroa_idx, align 8, !tbaa !27
  store i64 %38, ptr %9, align 8, !tbaa !27
  %.sroa.5.0..sroa_idx = getelementptr inbounds nuw i8, ptr %9, i64 8
  store i64 %spec.select19, ptr %.sroa.5.0..sroa_idx, align 8, !tbaa !27
  %.sroa.6.0..sroa_idx = getelementptr inbounds nuw i8, ptr %9, i64 16
  store i64 0, ptr %.sroa.6.0..sroa_idx, align 8, !tbaa !27
  tail call void %35(ptr noundef nonnull %32, ptr noundef nonnull byval(%struct.___itt_id) align 8 %8, ptr noundef nonnull byval(%struct.___itt_id) align 8 %9, ptr noundef null)
  br label %40

40:                                               ; preds = %37, %_ZN3tbb6detail2r1L14get_itt_domainENS0_2d115itt_domain_enumE.exit.thread, %_ZN3tbb6detail2r1L14get_itt_domainENS0_2d115itt_domain_enumE.exit
  ret void
}